target datalayout = "e-m:e-p270:32:32-p271:32:32-p272:64:64-i64:64-i128:128-f80:128-n8:16:32:64-S128"
target triple = "x86_64-pc-linux-gnu"

%"class.base::Callback" = type { %"class.base::internal::CallbackBase" }
%"class.base::internal::CallbackBase" = type { %"class.base::internal::CallbackBase.3" }
%"class.base::internal::CallbackBase.3" = type { %class.scoped_refptr }
%class.scoped_refptr = type { ptr }
%"struct.base::internal::BindState" = type { %"class.base::internal::BindStateBase", ptr, %"class.std::tuple" }
%"class.base::internal::BindStateBase" = type { ptr, i32, ptr, ptr }
%"class.std::tuple" = type { %"struct.std::_Tuple_impl" }
%"struct.std::_Tuple_impl" = type { %"struct.std::_Head_base" }
%"struct.std::_Head_base" = type { ptr }

; Function Attrs: mustprogress nounwind uwtable
define linkonce_odr void @_ZNSt10_Head_baseILm0EPvLb0EEC2IRS0_EEOT_(ptr noundef nonnull align 8 dereferenceable(8) %0, ptr noundef nonnull align 8 dereferenceable(8) %1) unnamed_addr #1 comdat align 2 {
  %3 = alloca ptr, align 8
  %4 = alloca ptr, align 8
  store ptr %0, ptr %3, align 8, !tbaa !90
  store ptr %1, ptr %4, align 8, !tbaa !37
  %5 = load ptr, ptr %3, align 8
  %6 = getelementptr inbounds nuw %"struct.std::_Head_base", ptr %5, i32 0, i32 0
  %7 = load ptr, ptr %4, align 8, !tbaa !37
  %8 = load ptr, ptr %7, align 8, !tbaa !37
  store ptr %8, ptr %6, align 8, !tbaa !99
  ret void
}

; Function Attrs: noinline noreturn nounwind uwtable
define linkonce_odr hidden void @__clang_call_terminate(ptr noundef %0) #3 comdat {
  %2 = call ptr @__cxa_begin_catch(ptr %0) #14
  call void @_ZSt9terminatev() #15
  unreachable
}

; Function Attrs: mustprogress uwtable
define linkonce_odr void @_ZNSt11_Tuple_implILm0EJPvEEC2IRS0_EEOT_(ptr noundef nonnull align 8 dereferenceable(8) %0, ptr noundef nonnull align 8 dereferenceable(8) %1) unnamed_addr #0 comdat align 2 {
  %3 = alloca ptr, align 8
  %4 = alloca ptr, align 8
  store ptr %0, ptr %3, align 8, !tbaa !88
  store ptr %1, ptr %4, align 8, !tbaa !37
  %5 = load ptr, ptr %3, align 8
  %6 = load ptr, ptr %4, align 8, !tbaa !37
  call void @_ZNSt10_Head_baseILm0EPvLb0EEC2IRS0_EEOT_(ptr noundef nonnull align 8 dereferenceable(8) %5, ptr noundef nonnull align 8 dereferenceable(8) %6)
  ret void
}

; Function Attrs: mustprogress nounwind uwtable
define linkonce_odr void @_ZNSt5tupleIJPvEEC2IJRS0_ELb1ETnNSt9enable_ifIXclsr4_TCCIXT0_EEE29__is_implicitly_constructibleIDpT_EEEbE4typeELb1EEEDpOS5_(ptr noundef nonnull align 8 dereferenceable(8) %0, ptr noundef nonnull align 8 dereferenceable(8) %1) unnamed_addr #1 comdat align 2 personality ptr @__gxx_personality_v0 {
  %3 = alloca ptr, align 8
  %4 = alloca ptr, align 8
  store ptr %0, ptr %3, align 8, !tbaa !86
  store ptr %1, ptr %4, align 8, !tbaa !37
  %5 = load ptr, ptr %3, align 8
  %6 = load ptr, ptr %4, align 8, !tbaa !37
  invoke void @_ZNSt11_Tuple_implILm0EJPvEEC2IRS0_EEOT_(ptr noundef nonnull align 8 dereferenceable(8) %5, ptr noundef nonnull align 8 dereferenceable(8) %6)
          to label %7 unwind label %8

7:                                                ; preds = %2
  ret void

8:                                                ; preds = %2
  %9 = landingpad { ptr, i32 }
          catch ptr null
  %10 = extractvalue { ptr, i32 } %9, 0
  call void @__clang_call_terminate(ptr %10) #15
  unreachable
}

; Function Attrs: mustprogress uwtable
define linkonce_odr void @_ZN4base8internal12CallbackBaseILNS0_8CopyModeE1EEC2EPNS0_13BindStateBaseE(ptr noundef nonnull align 8 dereferenceable(8) %0, ptr noundef %1) unnamed_addr #0 comdat align 2 {
  %3 = alloca ptr, align 8
  %4 = alloca ptr, align 8
  store ptr %0, ptr %3, align 8, !tbaa !100
  store ptr %1, ptr %4, align 8, !tbaa !82
  %5 = load ptr, ptr %3, align 8
  %6 = load ptr, ptr %4, align 8, !tbaa !82
  call void @_ZN4base8internal12CallbackBaseILNS0_8CopyModeE0EEC2EPNS0_13BindStateBaseE(ptr noundef nonnull align 8 dereferenceable(8) %5, ptr noundef %6)
  ret void
}

; Function Attrs: mustprogress uwtable
define linkonce_odr void @_ZN4base8internal9BindStateIPFvPvEJS2_EEC2IRS4_JRS2_EEESt17integral_constantIbLb0EEPFvvEOT_DpOT0_(ptr noundef nonnull align 8 dereferenceable(48) %0, ptr noundef %1, ptr noundef nonnull align 8 dereferenceable(8) %2, ptr noundef nonnull align 8 dereferenceable(8) %3) unnamed_addr #0 comdat align 2 {
  %5 = alloca ptr, align 8
  %6 = alloca ptr, align 8
  %7 = alloca ptr, align 8
  %8 = alloca ptr, align 8
  store ptr %0, ptr %5, align 8, !tbaa !84
  store ptr %1, ptr %6, align 8, !tbaa !37
  store ptr %2, ptr %7, align 8, !tbaa !37
  store ptr %3, ptr %8, align 8, !tbaa !37
  %9 = load ptr, ptr %5, align 8
  %10 = load ptr, ptr %6, align 8, !tbaa !37
  call void @_ZN4base8internal13BindStateBaseC2EPFvvEPFvPS1_E(ptr noundef nonnull align 8 dereferenceable(32) %9, ptr noundef %10, ptr noundef @_ZN4base8internal9BindStateIPFvPvEJS2_EE7DestroyEPNS0_13BindStateBaseE)
  %11 = getelementptr inbounds nuw %"struct.base::internal::BindState", ptr %9, i32 0, i32 1
  %12 = load ptr, ptr %7, align 8, !tbaa !37
  %13 = load ptr, ptr %12, align 8, !tbaa !37
  store ptr %13, ptr %11, align 8, !tbaa !92
  %14 = getelementptr inbounds nuw %"struct.base::internal::BindState", ptr %9, i32 0, i32 2
  %15 = load ptr, ptr %8, align 8, !tbaa !37
  call void @_ZNSt5tupleIJPvEEC2IJRS0_ELb1ETnNSt9enable_ifIXclsr4_TCCIXT0_EEE29__is_implicitly_constructibleIDpT_EEEbE4typeELb1EEEDpOS5_(ptr noundef nonnull align 8 dereferenceable(8) %14, ptr noundef nonnull align 8 dereferenceable(8) %15) #14
  ret void
}

; Function Attrs: mustprogress uwtable
define linkonce_odr void @_ZN4base8CallbackIFvvELNS_8internal8CopyModeE1ELNS2_10RepeatModeE1EEC2EPNS2_13BindStateBaseE(ptr noundef nonnull align 8 dereferenceable(8) %0, ptr noundef %1) unnamed_addr #0 comdat align 2 {
  %3 = alloca ptr, align 8
  %4 = alloca ptr, align 8
  store ptr %0, ptr %3, align 8, !tbaa !38
  store ptr %1, ptr %4, align 8, !tbaa !82
  %5 = load ptr, ptr %3, align 8
  %6 = load ptr, ptr %4, align 8, !tbaa !82
  call void @_ZN4base8internal12CallbackBaseILNS0_8CopyModeE1EEC2EPNS0_13BindStateBaseE(ptr noundef nonnull align 8 dereferenceable(8) %5, ptr noundef %6)
  ret void
}

; Function Attrs: mustprogress uwtable
define linkonce_odr void @_ZN4base8internal9BindStateIPFvPvEJS2_EEC2IRS4_JRS2_EEEPFvvEOT_DpOT0_(ptr noundef nonnull align 8 dereferenceable(48) %0, ptr noundef %1, ptr noundef nonnull align 8 dereferenceable(8) %2, ptr noundef nonnull align 8 dereferenceable(8) %3) unnamed_addr #0 comdat align 2 {
  %5 = alloca ptr, align 8
  %6 = alloca ptr, align 8
  %7 = alloca ptr, align 8
  %8 = alloca ptr, align 8
  store ptr %0, ptr %5, align 8, !tbaa !84
  store ptr %1, ptr %6, align 8, !tbaa !37
  store ptr %2, ptr %7, align 8, !tbaa !37
  store ptr %3, ptr %8, align 8, !tbaa !37
  %9 = load ptr, ptr %5, align 8
  %10 = load ptr, ptr %6, align 8, !tbaa !37
  %11 = load ptr, ptr %7, align 8, !tbaa !37
  %12 = load ptr, ptr %8, align 8, !tbaa !37
  call void @_ZN4base8internal9BindStateIPFvPvEJS2_EEC2IRS4_JRS2_EEESt17integral_constantIbLb0EEPFvvEOT_DpOT0_(ptr noundef nonnull align 8 dereferenceable(48) %9, ptr noundef %10, ptr noundef nonnull align 8 dereferenceable(8) %11, ptr noundef nonnull align 8 dereferenceable(8) %12)
  ret void
}

; Function Attrs: inlinehint mustprogress uwtable
define linkonce_odr void @_ZN4base8internal13BindRepeatingIRPFvPvEJRS2_EEENS_8CallbackINS0_22MakeUnboundRunTypeImplIT_JDpT0_EE4TypeELNS0_8CopyModeE1ELNS0_10RepeatModeE1EEEOS9_DpOSA_(ptr dead_on_unwind noalias writable sret(%"class.base::Callback") align 8 %0, ptr noundef nonnull align 8 dereferenceable(8) %1, ptr noundef nonnull align 8 dereferenceable(8) %2) #7 comdat personality ptr @__gxx_personality_v0 {
  %4 = alloca ptr, align 8
  %5 = alloca ptr, align 8
  %6 = alloca ptr, align 8
  %7 = alloca ptr, align 8
  %8 = alloca ptr, align 8
  %9 = alloca i32, align 4
  store ptr %0, ptr %4, align 8
  store ptr %1, ptr %5, align 8, !tbaa !37
  store ptr %2, ptr %6, align 8, !tbaa !37
  call void @llvm.lifetime.start.p0(i64 8, ptr %7) #14
  store ptr @_ZN4base8internal7InvokerINS0_9BindStateIPFvPvEJS3_EEEFvvEE3RunEPNS0_13BindStateBaseE, ptr %7, align 8, !tbaa !37
  %10 = call noalias noundef nonnull ptr @_Znwm(i64 noundef 48) #18
  %11 = load ptr, ptr %7, align 8, !tbaa !37
  %12 = load ptr, ptr %5, align 8, !tbaa !37
  %13 = load ptr, ptr %6, align 8, !tbaa !37
  invoke void @_ZN4base8internal9BindStateIPFvPvEJS2_EEC2IRS4_JRS2_EEEPFvvEOT_DpOT0_(ptr noundef nonnull align 8 dereferenceable(48) %10, ptr noundef %11, ptr noundef nonnull align 8 dereferenceable(8) %12, ptr noundef nonnull align 8 dereferenceable(8) %13)
          to label %14 unwind label %15

14:                                               ; preds = %3
  call void @_ZN4base8CallbackIFvvELNS_8internal8CopyModeE1ELNS2_10RepeatModeE1EEC2EPNS2_13BindStateBaseE(ptr noundef nonnull align 8 dereferenceable(8) %0, ptr noundef %10)
  call void @llvm.lifetime.end.p0(i64 8, ptr %7) #14
  ret void

15:                                               ; preds = %3
  %16 = landingpad { ptr, i32 }
          cleanup
  %17 = extractvalue { ptr, i32 } %16, 0
  store ptr %17, ptr %8, align 8
  %18 = extractvalue { ptr, i32 } %16, 1
  store i32 %18, ptr %9, align 4
  call void @_ZdlPv(ptr noundef %10) #16
  call void @llvm.lifetime.end.p0(i64 8, ptr %7) #14
  br label %19

19:                                               ; preds = %15
  %20 = load ptr, ptr %8, align 8
  %21 = load i32, ptr %9, align 4
  %22 = insertvalue { ptr, i32 } poison, ptr %20, 0
  %23 = insertvalue { ptr, i32 } %22, i32 %21, 1
  resume { ptr, i32 } %23
}

; Function Attrs: inlinehint mustprogress uwtable
define linkonce_odr void @_ZN4base4BindIRPFvPvEJRS1_EEENS_8CallbackINS_8internal22MakeUnboundRunTypeImplIT_JDpT0_EE4TypeELNS7_8CopyModeE1ELNS7_10RepeatModeE1EEEOS9_DpOSA_(ptr dead_on_unwind noalias writable sret(%"class.base::Callback") align 8 %0, ptr noundef nonnull align 8 dereferenceable(8) %1, ptr noundef nonnull align 8 dereferenceable(8) %2) #7 comdat {
  %4 = alloca ptr, align 8
  %5 = alloca ptr, align 8
  %6 = alloca ptr, align 8
  store ptr %0, ptr %4, align 8
  store ptr %1, ptr %5, align 8, !tbaa !37
  store ptr %2, ptr %6, align 8, !tbaa !37
  %7 = load ptr, ptr %5, align 8, !tbaa !37
  %8 = load ptr, ptr %6, align 8, !tbaa !37
  call void @_ZN4base8internal13BindRepeatingIRPFvPvEJRS2_EEENS_8CallbackINS0_22MakeUnboundRunTypeImplIT_JDpT0_EE4TypeELNS0_8CopyModeE1ELNS0_10RepeatModeE1EEEOS9_DpOSA_(ptr dead_on_unwind writable sret(%"class.base::Callback") align 8 %0, ptr noundef nonnull align 8 dereferenceable(8) %7, ptr noundef nonnull align 8 dereferenceable(8) %8)
  ret void
}

; Function Attrs: mustprogress uwtable
define void @_ZN4base13AtExitManager16RegisterCallbackEPFvPvES1_(ptr noundef %0, ptr noundef %1) #0 align 2 personality ptr @__gxx_personality_v0 {
  %3 = alloca ptr, align 8
  %4 = alloca ptr, align 8
  %5 = alloca %"class.base::Callback", align 8
  %6 = alloca ptr, align 8
  %7 = alloca i32, align 4
  store ptr %0, ptr %3, align 8, !tbaa !37
  store ptr %1, ptr %4, align 8, !tbaa !37
  call void @_ZN4base4BindIRPFvPvEJRS1_EEENS_8CallbackINS_8internal22MakeUnboundRunTypeImplIT_JDpT0_EE4TypeELNS7_8CopyModeE1ELNS7_10RepeatModeE1EEEOS9_DpOSA_(ptr dead_on_unwind writable sret(%"class.base::Callback") align 8 %5, ptr noundef nonnull align 8 dereferenceable(8) %3, ptr noundef nonnull align 8 dereferenceable(8) %4)
  invoke void @_ZN4base13AtExitManager12RegisterTaskENS_8CallbackIFvvELNS_8internal8CopyModeE1ELNS3_10RepeatModeE1EEE(ptr noundef %5)
          to label %8 unwind label %9

8:                                                ; preds = %2
  call void @_ZN4base8internal12CallbackBaseILNS0_8CopyModeE0EED2Ev(ptr noundef nonnull align 8 dereferenceable(8) %5) #14
  ret void

9:                                                ; preds = %2
  %10 = landingpad { ptr, i32 }
          cleanup
  %11 = extractvalue { ptr, i32 } %10, 0
  store ptr %11, ptr %6, align 8
  %12 = extractvalue { ptr, i32 } %10, 1
  store i32 %12, ptr %7, align 4
  call void @_ZN4base8internal12CallbackBaseILNS0_8CopyModeE0EED2Ev(ptr noundef nonnull align 8 dereferenceable(8) %5) #14
  br label %13

13:                                               ; preds = %9
  %14 = load ptr, ptr %6, align 8
  %15 = load i32, ptr %7, align 4
  %16 = insertvalue { ptr, i32 } poison, ptr %14, 0
  %17 = insertvalue { ptr, i32 } %16, i32 %15, 1
  resume { ptr, i32 } %17
}