; Function Attrs: mustprogress uwtable
define void @_ZN4base13AtExitManager16RegisterCallbackEPFvPvES1_(ptr noundef %0, ptr noundef %1) local_unnamed_addr #0 align 2 personality ptr @__gxx_personality_v0 {
  %3 = alloca %"class.base::Callback", align 8
  %4 = tail call noalias noundef nonnull dereferenceable(48) ptr @_Znwm(i64 noundef 48) #16, !noalias !45
  invoke void @_ZN4base8internal13BindStateBaseC2EPFvvEPFvPS1_E(ptr noundef nonnull align 8 dereferenceable(48) %4, ptr noundef nonnull @_ZN4base8internal7InvokerINS0_9BindStateIPFvPvEJS3_EEEFvvEE3RunEPNS0_13BindStateBaseE, ptr noundef nonnull @_ZN4base8internal9BindStateIPFvPvEJS2_EE7DestroyEPNS0_13BindStateBaseE)
          to label %_ZN4base4BindIRPFvPvEJRS1_EEENS_8CallbackINS_8internal22MakeUnboundRunTypeImplIT_JDpT0_EE4TypeELNS7_8CopyModeE1ELNS7_10RepeatModeE1EEEOS9_DpOSA_.exit unwind label %5, !noalias !45

common.resume:                                    ; preds = %10, %5
  %common.resume.op = phi { ptr, i32 } [ %6, %5 ], [ %11, %10 ]
  resume { ptr, i32 } %common.resume.op

5:                                                ; preds = %2
  %6 = landingpad { ptr, i32 }
          cleanup
  tail call void @_ZdlPv(ptr noundef nonnull %4) #15, !noalias !45
  br label %common.resume

_ZN4base4BindIRPFvPvEJRS1_EEENS_8CallbackINS_8internal22MakeUnboundRunTypeImplIT_JDpT0_EE4TypeELNS7_8CopyModeE1ELNS7_10RepeatModeE1EEEOS9_DpOSA_.exit: ; preds = %2
  %7 = getelementptr inbounds nuw i8, ptr %4, i64 32
  store ptr %0, ptr %7, align 8, !tbaa !50, !noalias !45
  %8 = getelementptr inbounds nuw i8, ptr %4, i64 40
  store ptr %1, ptr %8, align 8, !tbaa !55, !noalias !45
  call void @_ZN4base8internal12CallbackBaseILNS0_8CopyModeE0EEC2EPNS0_13BindStateBaseE(ptr noundef nonnull align 8 dereferenceable(8) %3, ptr noundef nonnull %4)
  invoke void @_ZN4base13AtExitManager12RegisterTaskENS_8CallbackIFvvELNS_8internal8CopyModeE1ELNS3_10RepeatModeE1EEE(ptr noundef nonnull %3)
          to label %9 unwind label %10

9:                                                ; preds = %_ZN4base4BindIRPFvPvEJRS1_EEENS_8CallbackINS_8internal22MakeUnboundRunTypeImplIT_JDpT0_EE4TypeELNS7_8CopyModeE1ELNS7_10RepeatModeE1EEEOS9_DpOSA_.exit
  call void @_ZN4base8internal12CallbackBaseILNS0_8CopyModeE0EED2Ev(ptr noundef nonnull align 8 dereferenceable(8) %3) #13
  ret void

10:                                               ; preds = %_ZN4base4BindIRPFvPvEJRS1_EEENS_8CallbackINS_8internal22MakeUnboundRunTypeImplIT_JDpT0_EE4TypeELNS7_8CopyModeE1ELNS7_10RepeatModeE1EEEOS9_DpOSA_.exit
  %11 = landingpad { ptr, i32 }
          cleanup
  call void @_ZN4base8internal12CallbackBaseILNS0_8CopyModeE0EED2Ev(ptr noundef nonnull align 8 dereferenceable(8) %3) #13
  br label %common.resume
}